target datalayout = "e-m:e-p270:32:32-p271:32:32-p272:64:64-i64:64-i128:128-f80:128-n8:16:32:64-S128"
target triple = "x86_64-pc-linux-gnu"

%class.LogTagSet = type { ptr, i64, [5 x i32], [4 x i8], %class.LogOutputList, %class.LogDecorators, ptr }
%class.LogOutputList = type <{ [6 x ptr], i32, [4 x i8] }>
%class.LogDecorators = type { i32 }
%class.SystemProperty = type <{ %class.PathString, ptr, ptr, i8, i8, [6 x i8] }>
%class.PathString = type { ptr }

@RequireSharedSpaces = external global i8, align 1
@ArchiveClassesAtExit = external global ptr, align 8
@.str.24 = private unnamed_addr constant [49 x i8] c"CDS is disabled when the %s option is specified.\00", align 1
@_ZN16LogTagSetMappingILN6LogTag4typeE14ELS1_0ELS1_0ELS1_0ELS1_0ELS1_0EE7_tagsetE = linkonce_odr hidden global %class.LogTagSet zeroinitializer, comdat, align 8
@_ZZL34find_any_unsupported_module_optionvE29unsupported_module_properties = internal global [3 x ptr] [ptr @.str.35, ptr @.str.36, ptr @.str.37], align 16
@_ZZL34find_any_unsupported_module_optionvE26unsupported_module_options = internal global [3 x ptr] [ptr @.str.38, ptr @.str.39, ptr @.str.40], align 16
@_ZN9Arguments18_system_propertiesE = external global ptr, align 8

; Function Attrs: mustprogress nounwind uwtable
define linkonce_odr hidden noundef zeroext i1 @_ZNK13LogOutputList8is_levelEN8LogLevel4typeE(ptr noundef nonnull align 8 dereferenceable(52) %0, i32 noundef %1) #1 comdat align 2 {
  %3 = alloca ptr, align 8
  %4 = alloca i32, align 4
  store ptr %0, ptr %3, align 8
  store i32 %1, ptr %4, align 4
  %5 = load ptr, ptr %3, align 8
  %6 = getelementptr inbounds %class.LogOutputList, ptr %5, i32 0, i32 0
  %7 = load i32, ptr %4, align 4
  %8 = zext i32 %7 to i64
  %9 = getelementptr inbounds [6 x ptr], ptr %6, i64 0, i64 %8
  %10 = load volatile ptr, ptr %9, align 8
  %11 = icmp ne ptr %10, null
  ret i1 %11
}

; Function Attrs: mustprogress nounwind uwtable
define linkonce_odr hidden noundef zeroext i1 @_ZNK9LogTagSet8is_levelEN8LogLevel4typeE(ptr noundef nonnull align 8 dereferenceable(112) %0, i32 noundef %1) #1 comdat align 2 {
  %3 = alloca ptr, align 8
  %4 = alloca i32, align 4
  store ptr %0, ptr %3, align 8
  store i32 %1, ptr %4, align 4
  %5 = load ptr, ptr %3, align 8
  %6 = getelementptr inbounds %class.LogTagSet, ptr %5, i32 0, i32 4
  %7 = load i32, ptr %4, align 4
  %8 = call noundef zeroext i1 @_ZNK13LogOutputList8is_levelEN8LogLevel4typeE(ptr noundef nonnull align 8 dereferenceable(52) %6, i32 noundef %7)
  ret i1 %8
}

; Function Attrs: mustprogress nounwind uwtable
define linkonce_odr hidden noundef nonnull align 8 dereferenceable(112) ptr @_ZN16LogTagSetMappingILN6LogTag4typeE14ELS1_0ELS1_0ELS1_0ELS1_0ELS1_0EE6tagsetEv() #1 comdat align 2 {
  ret ptr @_ZN16LogTagSetMappingILN6LogTag4typeE14ELS1_0ELS1_0ELS1_0ELS1_0ELS1_0EE7_tagsetE
}

; Function Attrs: mustprogress nounwind uwtable
define linkonce_odr hidden noundef ptr @_ZNK14SystemProperty4nextEv(ptr noundef nonnull align 8 dereferenceable(26) %0) #1 comdat align 2 {
  %2 = alloca ptr, align 8
  store ptr %0, ptr %2, align 8
  %3 = load ptr, ptr %2, align 8
  %4 = getelementptr inbounds %class.SystemProperty, ptr %3, i32 0, i32 2
  %5 = load ptr, ptr %4, align 8
  ret ptr %5
}

; Function Attrs: mustprogress nounwind uwtable
define linkonce_odr hidden noundef ptr @_ZNK14SystemProperty3keyEv(ptr noundef nonnull align 8 dereferenceable(26) %0) #1 comdat align 2 {
  %2 = alloca ptr, align 8
  store ptr %0, ptr %2, align 8
  %3 = load ptr, ptr %2, align 8
  %4 = getelementptr inbounds %class.SystemProperty, ptr %3, i32 0, i32 1
  %5 = load ptr, ptr %4, align 8
  ret ptr %5
}

; Function Attrs: mustprogress nounwind uwtable
define linkonce_odr hidden noundef ptr @_ZN9Arguments17system_propertiesEv() #1 comdat align 2 {
  %1 = load ptr, ptr @_ZN9Arguments18_system_propertiesE, align 8
  ret ptr %1
}

; Function Attrs: mustprogress nounwind uwtable
define linkonce_odr hidden noundef zeroext i1 @_ZN7LogImplILN6LogTag4typeE14ELS1_0ELS1_0ELS1_0ELS1_0ELS1_0EE8is_levelEN8LogLevel4typeE(i32 noundef %0) #1 comdat align 2 {
  %2 = alloca i32, align 4
  store i32 %0, ptr %2, align 4
  %3 = call noundef nonnull align 8 dereferenceable(112) ptr @_ZN16LogTagSetMappingILN6LogTag4typeE14ELS1_0ELS1_0ELS1_0ELS1_0ELS1_0EE6tagsetEv()
  %4 = load i32, ptr %2, align 4
  %5 = call noundef zeroext i1 @_ZNK9LogTagSet8is_levelEN8LogLevel4typeE(ptr noundef nonnull align 8 dereferenceable(112) %3, i32 noundef %4)
  ret i1 %5
}

; Function Attrs: mustprogress nounwind uwtable
define internal noundef ptr @_ZL34find_any_unsupported_module_optionv() #1 {
  %1 = alloca ptr, align 8
  %2 = alloca ptr, align 8
  %3 = alloca i32, align 4
  %4 = call noundef ptr @_ZN9Arguments17system_propertiesEv()
  store ptr %4, ptr %2, align 8
  br label %5

5:                                                ; preds = %31, %0
  %6 = load ptr, ptr %2, align 8
  %7 = icmp ne ptr %6, null
  br i1 %7, label %8, label %34

8:                                                ; preds = %5
  store i32 0, ptr %3, align 4
  br label %9

9:                                                ; preds = %28, %8
  %10 = load i32, ptr %3, align 4
  %11 = zext i32 %10 to i64
  %12 = icmp ult i64 %11, 3
  br i1 %12, label %13, label %31

13:                                               ; preds = %9
  %14 = load ptr, ptr %2, align 8
  %15 = call noundef ptr @_ZNK14SystemProperty3keyEv(ptr noundef nonnull align 8 dereferenceable(26) %14)
  %16 = load i32, ptr %3, align 4
  %17 = zext i32 %16 to i64
  %18 = getelementptr inbounds [3 x ptr], ptr @_ZZL34find_any_unsupported_module_optionvE29unsupported_module_properties, i64 0, i64 %17
  %19 = load ptr, ptr %18, align 8
  %20 = call i32 @strcmp(ptr noundef %15, ptr noundef %19) #6
  %21 = icmp eq i32 %20, 0
  br i1 %21, label %22, label %27

22:                                               ; preds = %13
  %23 = load i32, ptr %3, align 4
  %24 = zext i32 %23 to i64
  %25 = getelementptr inbounds [3 x ptr], ptr @_ZZL34find_any_unsupported_module_optionvE26unsupported_module_options, i64 0, i64 %24
  %26 = load ptr, ptr %25, align 8
  store ptr %26, ptr %1, align 8
  br label %35

27:                                               ; preds = %13
  br label %28

28:                                               ; preds = %27
  %29 = load i32, ptr %3, align 4
  %30 = add i32 %29, 1
  store i32 %30, ptr %3, align 4
  br label %9, !llvm.loop !8

31:                                               ; preds = %9
  %32 = load ptr, ptr %2, align 8
  %33 = call noundef ptr @_ZNK14SystemProperty4nextEv(ptr noundef nonnull align 8 dereferenceable(26) %32)
  store ptr %33, ptr %2, align 8
  br label %5, !llvm.loop !9

34:                                               ; preds = %5
  store ptr null, ptr %1, align 8
  br label %35

35:                                               ; preds = %34, %22
  %36 = load ptr, ptr %1, align 8
  ret ptr %36
}

; Function Attrs: mustprogress nounwind uwtable
define hidden noundef zeroext i1 @_ZN9CDSConfig38has_unsupported_runtime_module_optionsEv() #1 align 2 {
  %1 = alloca i1, align 1
  %2 = alloca ptr, align 8
  %3 = load ptr, ptr @ArchiveClassesAtExit, align 8
  %4 = icmp ne ptr %3, null
  br i1 %4, label %5, label %6

5:                                                ; preds = %0
  store i1 false, ptr %1, align 1
  br label %23

6:                                                ; preds = %0
  %7 = call noundef ptr @_ZL34find_any_unsupported_module_optionv()
  store ptr %7, ptr %2, align 8
  %8 = load ptr, ptr %2, align 8
  %9 = icmp ne ptr %8, null
  br i1 %9, label %10, label %22

10:                                               ; preds = %6
  %11 = load i8, ptr @RequireSharedSpaces, align 1
  %12 = trunc i8 %11 to i1
  br i1 %12, label %13, label %15

13:                                               ; preds = %10
  %14 = load ptr, ptr %2, align 8
  call void (ptr, ...) @_Z7warningPKcz(ptr noundef @.str.24, ptr noundef %14)
  br label %21

15:                                               ; preds = %10
  %16 = call noundef zeroext i1 @_ZN7LogImplILN6LogTag4typeE14ELS1_0ELS1_0ELS1_0ELS1_0ELS1_0EE8is_levelEN8LogLevel4typeE(i32 noundef 3)
  br i1 %16, label %18, label %17

17:                                               ; preds = %15
  br label %20

18:                                               ; preds = %15
  %19 = load ptr, ptr %2, align 8
  call void (ptr, ...) @_ZN7LogImplILN6LogTag4typeE14ELS1_0ELS1_0ELS1_0ELS1_0ELS1_0EE5writeILN8LogLevel4typeE3EEEvPKcz(ptr noundef @.str.24, ptr noundef %19)
  br label %20

20:                                               ; preds = %18, %17
  br label %21

21:                                               ; preds = %20, %13
  store i1 true, ptr %1, align 1
  br label %23

22:                                               ; preds = %6
  store i1 false, ptr %1, align 1
  br label %23

23:                                               ; preds = %22, %21, %5
  %24 = load i1, ptr %1, align 1
  ret i1 %24
}