; Function Attrs: mustprogress nounwind uwtable
define hidden noundef zeroext i1 @_ZN9CDSConfig38has_unsupported_runtime_module_optionsEv() local_unnamed_addr #2 align 2 {
  %1 = load ptr, ptr @ArchiveClassesAtExit, align 8
  %.not = icmp ne ptr %1, null
  %.0712.i = load ptr, ptr @_ZN9Arguments18_system_propertiesE, align 8
  %.not13.i = icmp eq ptr %.0712.i, null
  %or.cond = select i1 %.not, i1 true, i1 %.not13.i
  br i1 %or.cond, label %_ZL34find_any_unsupported_module_optionv.exit.thread, label %.preheader.i

.preheader.i:                                     ; preds = %0, %10
  %.0714.i = phi ptr [ %.07.i, %10 ], [ %.0712.i, %0 ]
  %2 = getelementptr inbounds i8, ptr %.0714.i, i64 8
  %3 = load ptr, ptr %2, align 8
  br label %5

4:                                                ; preds = %5
  %indvars.iv.next.i = add nuw nsw i64 %indvars.iv.i, 1
  %exitcond.not.i = icmp eq i64 %indvars.iv.next.i, 3
  br i1 %exitcond.not.i, label %10, label %5, !llvm.loop !6

5:                                                ; preds = %4, %.preheader.i
  %indvars.iv.i = phi i64 [ 0, %.preheader.i ], [ %indvars.iv.next.i, %4 ]
  %6 = getelementptr inbounds [3 x ptr], ptr @_ZZL34find_any_unsupported_module_optionvE29unsupported_module_properties, i64 0, i64 %indvars.iv.i
  %7 = load ptr, ptr %6, align 8
  %8 = tail call i32 @strcmp(ptr noundef nonnull dereferenceable(1) %3, ptr noundef nonnull dereferenceable(1) %7) #10
  %9 = icmp eq i32 %8, 0
  br i1 %9, label %_ZL34find_any_unsupported_module_optionv.exit, label %4

10:                                               ; preds = %4
  %11 = getelementptr inbounds i8, ptr %.0714.i, i64 16
  %.07.i = load ptr, ptr %11, align 8
  %.not.i = icmp eq ptr %.07.i, null
  br i1 %.not.i, label %_ZL34find_any_unsupported_module_optionv.exit.thread, label %.preheader.i, !llvm.loop !8

_ZL34find_any_unsupported_module_optionv.exit:    ; preds = %5
  %12 = getelementptr inbounds [3 x ptr], ptr @_ZZL34find_any_unsupported_module_optionvE26unsupported_module_options, i64 0, i64 %indvars.iv.i
  %13 = load ptr, ptr %12, align 8
  %14 = load i8, ptr @RequireSharedSpaces, align 1
  %15 = trunc i8 %14 to i1
  br i1 %15, label %16, label %17

16:                                               ; preds = %_ZL34find_any_unsupported_module_optionv.exit
  tail call void (ptr, ...) @_Z7warningPKcz(ptr noundef nonnull @.str.24, ptr noundef nonnull %13) #9
  br label %_ZL34find_any_unsupported_module_optionv.exit.thread

17:                                               ; preds = %_ZL34find_any_unsupported_module_optionv.exit
  %18 = load volatile ptr, ptr getelementptr inbounds (i8, ptr @_ZN16LogTagSetMappingILN6LogTag4typeE14ELS1_0ELS1_0ELS1_0ELS1_0ELS1_0EE7_tagsetE, i64 64), align 8
  %.not8 = icmp eq ptr %18, null
  br i1 %.not8, label %_ZL34find_any_unsupported_module_optionv.exit.thread, label %19

19:                                               ; preds = %17
  tail call void (ptr, ...) @_ZN7LogImplILN6LogTag4typeE14ELS1_0ELS1_0ELS1_0ELS1_0ELS1_0EE5writeILN8LogLevel4typeE3EEEvPKcz(ptr noundef nonnull @.str.24, ptr noundef nonnull %13)
  br label %_ZL34find_any_unsupported_module_optionv.exit.thread

_ZL34find_any_unsupported_module_optionv.exit.thread: ; preds = %10, %16, %17, %19, %0
  %.0 = phi i1 [ false, %0 ], [ true, %19 ], [ true, %17 ], [ true, %16 ], [ false, %10 ]
  ret i1 %.0
}